; ModuleID = '49/7.c'
source_filename = "49/7.c"
target datalayout = "e-m:e-p270:32:32-p271:32:32-p272:64:64-i64:64-f80:128-n8:16:32:64-S128"
target triple = "x86_64-pc-linux-gnu"

@.str = private unnamed_addr constant [3 x i8] c"%c\00", align 1
@.str.1 = private unnamed_addr constant [4 x i8] c"%c\0A\00", align 1

; Function Attrs: noinline nounwind uwtable
define dso_local void @main() #0 {
  %1 = alloca i32, align 4
  %2 = alloca i32, align 4
  %3 = alloca i32, align 4
  %4 = alloca i32, align 4
  %5 = alloca i32, align 4
  %6 = alloca [1000 x i8], align 16
  %7 = getelementptr inbounds [1000 x i8], [1000 x i8]* %6, i64 0, i64 0
  %8 = call i32 (i8*, ...) bitcast (i32 (...)* @gets to i32 (i8*, ...)*)(i8* %7)
  %9 = getelementptr inbounds [1000 x i8], [1000 x i8]* %6, i64 0, i64 0
  %10 = call i64 @strlen(i8* %9) #3
  %11 = trunc i64 %10 to i32
  store i32 %11, i32* %1, align 4
  store i32 1, i32* %3, align 4
  br label %12

12:                                               ; preds = %109, %0
  %13 = load i32, i32* %3, align 4
  %14 = load i32, i32* %1, align 4
  %15 = sub nsw i32 %14, 1
  %16 = icmp sle i32 %13, %15
  br i1 %16, label %17, label %112

17:                                               ; preds = %12
  store i32 0, i32* %4, align 4
  br label %18

18:                                               ; preds = %105, %17
  %19 = load i32, i32* %4, align 4
  %20 = load i32, i32* %1, align 4
  %21 = sub nsw i32 %20, 1
  %22 = icmp slt i32 %19, %21
  br i1 %22, label %23, label %108

23:                                               ; preds = %18
  store i32 0, i32* %2, align 4
  br label %24

24:                                               ; preds = %101, %23
  %25 = load i32, i32* %2, align 4
  %26 = load i32, i32* %3, align 4
  %27 = sdiv i32 %26, 2
  %28 = icmp sle i32 %25, %27
  br i1 %28, label %29, label %104

29:                                               ; preds = %24
  %30 = load i32, i32* %4, align 4
  %31 = load i32, i32* %2, align 4
  %32 = add nsw i32 %30, %31
  %33 = sext i32 %32 to i64
  %34 = getelementptr inbounds [1000 x i8], [1000 x i8]* %6, i64 0, i64 %33
  %35 = load i8, i8* %34, align 1
  %36 = sext i8 %35 to i32
  %37 = load i32, i32* %4, align 4
  %38 = load i32, i32* %3, align 4
  %39 = add nsw i32 %37, %38
  %40 = load i32, i32* %2, align 4
  %41 = sub nsw i32 %39, %40
  %42 = sext i32 %41 to i64
  %43 = getelementptr inbounds [1000 x i8], [1000 x i8]* %6, i64 0, i64 %42
  %44 = load i8, i8* %43, align 1
  %45 = sext i8 %44 to i32
  %46 = icmp ne i32 %36, %45
  br i1 %46, label %47, label %48

47:                                               ; preds = %29
  br label %104

48:                                               ; preds = %29
  %49 = load i32, i32* %4, align 4
  %50 = load i32, i32* %2, align 4
  %51 = add nsw i32 %49, %50
  %52 = sext i32 %51 to i64
  %53 = getelementptr inbounds [1000 x i8], [1000 x i8]* %6, i64 0, i64 %52
  %54 = load i8, i8* %53, align 1
  %55 = sext i8 %54 to i32
  %56 = load i32, i32* %4, align 4
  %57 = load i32, i32* %3, align 4
  %58 = add nsw i32 %56, %57
  %59 = load i32, i32* %2, align 4
  %60 = sub nsw i32 %58, %59
  %61 = sext i32 %60 to i64
  %62 = getelementptr inbounds [1000 x i8], [1000 x i8]* %6, i64 0, i64 %61
  %63 = load i8, i8* %62, align 1
  %64 = sext i8 %63 to i32
  %65 = icmp eq i32 %55, %64
  br i1 %65, label %66, label %72

66:                                               ; preds = %48
  %67 = load i32, i32* %2, align 4
  %68 = load i32, i32* %3, align 4
  %69 = sdiv i32 %68, 2
  %70 = icmp slt i32 %67, %69
  br i1 %70, label %71, label %72

71:                                               ; preds = %66
  br label %101

72:                                               ; preds = %66, %48
  %73 = load i32, i32* %4, align 4
  store i32 %73, i32* %5, align 4
  br label %74

74:                                               ; preds = %87, %72
  %75 = load i32, i32* %5, align 4
  %76 = load i32, i32* %4, align 4
  %77 = load i32, i32* %3, align 4
  %78 = add nsw i32 %76, %77
  %79 = icmp slt i32 %75, %78
  br i1 %79, label %80, label %90

80:                                               ; preds = %74
  %81 = load i32, i32* %5, align 4
  %82 = sext i32 %81 to i64
  %83 = getelementptr inbounds [1000 x i8], [1000 x i8]* %6, i64 0, i64 %82
  %84 = load i8, i8* %83, align 1
  %85 = sext i8 %84 to i32
  %86 = call i32 (i8*, ...) @printf(i8* getelementptr inbounds ([3 x i8], [3 x i8]* @.str, i64 0, i64 0), i32 %85)
  br label %87

87:                                               ; preds = %80
  %88 = load i32, i32* %5, align 4
  %89 = add nsw i32 %88, 1
  store i32 %89, i32* %5, align 4
  br label %74

90:                                               ; preds = %74
  %91 = load i32, i32* %4, align 4
  %92 = load i32, i32* %3, align 4
  %93 = add nsw i32 %91, %92
  %94 = sext i32 %93 to i64
  %95 = getelementptr inbounds [1000 x i8], [1000 x i8]* %6, i64 0, i64 %94
  %96 = load i8, i8* %95, align 1
  %97 = sext i8 %96 to i32
  %98 = call i32 (i8*, ...) @printf(i8* getelementptr inbounds ([4 x i8], [4 x i8]* @.str.1, i64 0, i64 0), i32 %97)
  br label %99

99:                                               ; preds = %90
  br label %100

100:                                              ; preds = %99
  br label %101

101:                                              ; preds = %100, %71
  %102 = load i32, i32* %2, align 4
  %103 = add nsw i32 %102, 1
  store i32 %103, i32* %2, align 4
  br label %24

104:                                              ; preds = %47, %24
  br label %105

105:                                              ; preds = %104
  %106 = load i32, i32* %4, align 4
  %107 = add nsw i32 %106, 1
  store i32 %107, i32* %4, align 4
  br label %18

108:                                              ; preds = %18
  br label %109

109:                                              ; preds = %108
  %110 = load i32, i32* %3, align 4
  %111 = add nsw i32 %110, 1
  store i32 %111, i32* %3, align 4
  br label %12

112:                                              ; preds = %12
  ret void
}

declare dso_local i32 @gets(...) #1

; Function Attrs: nounwind readonly
declare dso_local i64 @strlen(i8*) #2

declare dso_local i32 @printf(i8*, ...) #1


!llvm.module.flags = !{!0}
!llvm.ident = !{!1}

!0 = !{i32 1, !"wchar_size", i32 4}
!1 = !{!"clang version 10.0.0-4ubuntu1 "}
