; ModuleID = 'source-C-CXX/48/7.c'
source_filename = "source-C-CXX/48/7.c"
target datalayout = "e-m:e-p270:32:32-p271:32:32-p272:64:64-i64:64-f80:128-n8:16:32:64-S128"
target triple = "x86_64-pc-linux-gnu"

@.str.1 = private unnamed_addr constant [4 x i8] c"%c\0A\00", align 1

; Function Attrs: nounwind sspstrong uwtable
define dso_local void @main() local_unnamed_addr #0 {
  %1 = alloca [1000 x i8], align 16
  %2 = getelementptr inbounds [1000 x i8], [1000 x i8]* %1, i64 0, i64 0
  call void @llvm.lifetime.start.p0i8(i64 1000, i8* nonnull %2) #6
  %3 = call i32 (i8*, ...) bitcast (i32 (...)* @gets to i32 (i8*, ...)*)(i8* nonnull %2) #6
  %4 = call i64 @strlen(i8* noundef nonnull %2) #7
  %5 = trunc i64 %4 to i32
  %6 = icmp sgt i32 %5, 1
  br i1 %6, label %7, label %56

7:                                                ; preds = %0
  %8 = add i64 %4, 4294967295
  %9 = and i64 %4, 4294967295
  %10 = and i64 %8, 4294967295
  br label %11

11:                                               ; preds = %7, %53
  %12 = phi i64 [ 1, %7 ], [ %54, %53 ]
  %13 = trunc i64 %12 to i32
  %14 = lshr i32 %13, 1
  %15 = add nuw nsw i32 %14, 1
  %16 = zext i32 %14 to i64
  %17 = zext i32 %15 to i64
  br label %48

18:                                               ; preds = %48, %41
  %19 = phi i64 [ 0, %48 ], [ %42, %41 ]
  %20 = add nuw nsw i64 %19, %50
  %21 = getelementptr inbounds [1000 x i8], [1000 x i8]* %1, i64 0, i64 %20
  %22 = load i8, i8* %21, align 1, !tbaa !5
  %23 = sub nsw i64 %51, %19
  %24 = getelementptr inbounds [1000 x i8], [1000 x i8]* %1, i64 0, i64 %23
  %25 = load i8, i8* %24, align 1, !tbaa !5
  %26 = icmp eq i8 %22, %25
  br i1 %26, label %27, label %44

27:                                               ; preds = %18
  %28 = icmp ult i64 %19, %16
  br i1 %28, label %41, label %33

29:                                               ; preds = %33
  %30 = load i8, i8* %52, align 1, !tbaa !5
  %31 = sext i8 %30 to i32
  %32 = call i32 (i8*, ...) @printf(i8* nonnull dereferenceable(1) getelementptr inbounds ([4 x i8], [4 x i8]* @.str.1, i64 0, i64 0), i32 %31)
  br label %41

33:                                               ; preds = %27, %33
  %34 = phi i64 [ %39, %33 ], [ %50, %27 ]
  %35 = getelementptr inbounds [1000 x i8], [1000 x i8]* %1, i64 0, i64 %34
  %36 = load i8, i8* %35, align 1, !tbaa !5
  %37 = sext i8 %36 to i32
  %38 = call i32 @putchar(i32 %37)
  %39 = add nuw nsw i64 %34, 1
  %40 = icmp eq i64 %39, %49
  br i1 %40, label %29, label %33, !llvm.loop !8

41:                                               ; preds = %29, %27
  %42 = add nuw nsw i64 %19, 1
  %43 = icmp eq i64 %42, %17
  br i1 %43, label %44, label %18, !llvm.loop !10

44:                                               ; preds = %41, %18
  %45 = add nuw nsw i64 %50, 1
  %46 = add nuw nsw i64 %49, 1
  %47 = icmp eq i64 %45, %10
  br i1 %47, label %53, label %48, !llvm.loop !11

48:                                               ; preds = %11, %44
  %49 = phi i64 [ %12, %11 ], [ %46, %44 ]
  %50 = phi i64 [ 0, %11 ], [ %45, %44 ]
  %51 = add nuw nsw i64 %50, %12
  %52 = getelementptr inbounds [1000 x i8], [1000 x i8]* %1, i64 0, i64 %51
  br label %18

53:                                               ; preds = %44
  %54 = add nuw nsw i64 %12, 1
  %55 = icmp eq i64 %54, %9
  br i1 %55, label %56, label %11, !llvm.loop !12

56:                                               ; preds = %53, %0
  call void @llvm.lifetime.end.p0i8(i64 1000, i8* nonnull %2) #6
  ret void
}

; Function Attrs: argmemonly mustprogress nofree nosync nounwind willreturn
declare void @llvm.lifetime.start.p0i8(i64 immarg, i8* nocapture) #1

declare i32 @gets(...) local_unnamed_addr #2

; Function Attrs: argmemonly mustprogress nofree nounwind readonly willreturn
declare i64 @strlen(i8* nocapture) local_unnamed_addr #3

; Function Attrs: nofree nounwind
declare noundef i32 @printf(i8* nocapture noundef readonly, ...) local_unnamed_addr #4

; Function Attrs: argmemonly mustprogress nofree nosync nounwind willreturn
declare void @llvm.lifetime.end.p0i8(i64 immarg, i8* nocapture) #1

; Function Attrs: nofree nounwind
declare noundef i32 @putchar(i32 noundef) local_unnamed_addr #5


!llvm.module.flags = !{!0, !1, !2, !3}
!llvm.ident = !{!4}

!0 = !{i32 1, !"wchar_size", i32 4}
!1 = !{i32 7, !"PIC Level", i32 2}
!2 = !{i32 7, !"PIE Level", i32 2}
!3 = !{i32 7, !"uwtable", i32 1}
!4 = !{!"clang version 13.0.0"}
!5 = !{!6, !6, i64 0}
!6 = !{!"omnipotent char", !7, i64 0}
!7 = !{!"Simple C/C++ TBAA"}
!8 = distinct !{!8, !9}
!9 = !{!"llvm.loop.mustprogress"}
!10 = distinct !{!10, !9}
!11 = distinct !{!11, !9}
!12 = distinct !{!12, !9}
